target datalayout = "e-m:e-p270:32:32-p271:32:32-p272:64:64-i64:64-i128:128-f80:128-n8:16:32:64-S128"
target triple = "x86_64-pc-linux-gnu"

@min_dynamic_shared_memory = external global i32, align 4
@.str.5 = private unnamed_addr constant [17 x i8] c"Preallocated DSM\00", align 1
@dsm_main_space_begin = internal global ptr null, align 8

; Function Attrs: nounwind uwtable
define dso_local i64 @dsm_estimate_size() #0 {
  %1 = load i32, ptr @min_dynamic_shared_memory, align 4
  %2 = sext i32 %1 to i64
  %3 = mul i64 1048576, %2
  ret i64 %3
}

; Function Attrs: nounwind uwtable
define dso_local void @dsm_shmem_init() #0 {
  %1 = alloca i64, align 8
  %2 = alloca i8, align 1
  %3 = alloca i32, align 4
  %4 = alloca ptr, align 8
  %5 = alloca i64, align 8
  %6 = alloca i64, align 8
  call void @llvm.lifetime.start.p0(i64 8, ptr %1) #8
  %7 = call i64 @dsm_estimate_size()
  store i64 %7, ptr %1, align 8
  call void @llvm.lifetime.start.p0(i64 1, ptr %2) #8
  %8 = load i64, ptr %1, align 8
  %9 = icmp eq i64 %8, 0
  br i1 %9, label %10, label %11

10:                                               ; preds = %0
  store i32 1, ptr %3, align 4
  br label %36

11:                                               ; preds = %0
  %12 = load i64, ptr %1, align 8
  %13 = call ptr @ShmemInitStruct(ptr noundef @.str.5, i64 noundef %12, ptr noundef %2)
  store ptr %13, ptr @dsm_main_space_begin, align 8
  %14 = load i8, ptr %2, align 1, !range !8, !noundef !9
  %15 = trunc i8 %14 to i1
  br i1 %15, label %35, label %16

16:                                               ; preds = %11
  call void @llvm.lifetime.start.p0(i64 8, ptr %4) #8
  %17 = load ptr, ptr @dsm_main_space_begin, align 8
  store ptr %17, ptr %4, align 8
  call void @llvm.lifetime.start.p0(i64 8, ptr %5) #8
  store i64 0, ptr %5, align 8
  call void @llvm.lifetime.start.p0(i64 8, ptr %6) #8
  br label %18

18:                                               ; preds = %22, %16
  %19 = load i64, ptr %5, align 8
  %20 = mul i64 %19, 4096
  %21 = icmp ult i64 %20, 1096
  br i1 %21, label %22, label %25

22:                                               ; preds = %18
  %23 = load i64, ptr %5, align 8
  %24 = add i64 %23, 1
  store i64 %24, ptr %5, align 8
  br label %18, !llvm.loop !10

25:                                               ; preds = %18
  %26 = load ptr, ptr %4, align 8
  %27 = load ptr, ptr @dsm_main_space_begin, align 8
  call void @FreePageManagerInitialize(ptr noundef %26, ptr noundef %27)
  %28 = load i64, ptr %1, align 8
  %29 = udiv i64 %28, 4096
  %30 = load i64, ptr %5, align 8
  %31 = sub i64 %29, %30
  store i64 %31, ptr %6, align 8
  %32 = load ptr, ptr %4, align 8
  %33 = load i64, ptr %5, align 8
  %34 = load i64, ptr %6, align 8
  call void @FreePageManagerPut(ptr noundef %32, i64 noundef %33, i64 noundef %34)
  call void @llvm.lifetime.end.p0(i64 8, ptr %6) #8
  call void @llvm.lifetime.end.p0(i64 8, ptr %5) #8
  call void @llvm.lifetime.end.p0(i64 8, ptr %4) #8
  br label %35

35:                                               ; preds = %25, %11
  store i32 0, ptr %3, align 4
  br label %36

36:                                               ; preds = %35, %10
  call void @llvm.lifetime.end.p0(i64 1, ptr %2) #8
  call void @llvm.lifetime.end.p0(i64 8, ptr %1) #8
  %37 = load i32, ptr %3, align 4
  switch i32 %37, label %39 [
    i32 0, label %38
    i32 1, label %38
  ]

38:                                               ; preds = %36, %36
  ret void

39:                                               ; preds = %36
  unreachable
}