; Function Attrs: nounwind uwtable
define dso_local void @dsm_shmem_init() local_unnamed_addr #0 {
  %1 = alloca i8, align 1
  %2 = load i32, ptr @min_dynamic_shared_memory, align 4
  %3 = sext i32 %2 to i64
  %4 = shl nsw i64 %3, 20
  call void @llvm.lifetime.start.p0(i64 1, ptr nonnull %1) #12
  %5 = icmp eq i32 %2, 0
  br i1 %5, label %12, label %6

6:                                                ; preds = %0
  %7 = call ptr @ShmemInitStruct(ptr noundef nonnull @.str.5, i64 noundef %4, ptr noundef nonnull %1) #12
  store ptr %7, ptr @dsm_main_space_begin, align 8
  %8 = load i8, ptr %1, align 1, !range !8, !noundef !9
  %9 = trunc nuw i8 %8 to i1
  br i1 %9, label %12, label %.preheader.preheader

.preheader.preheader:                             ; preds = %6
  call void @FreePageManagerInitialize(ptr noundef %7, ptr noundef %7) #12
  %10 = lshr exact i64 %4, 12
  %11 = add nsw i64 %10, -1
  call void @FreePageManagerPut(ptr noundef %7, i64 noundef 1, i64 noundef %11) #12
  br label %12

12:                                               ; preds = %6, %.preheader.preheader, %0
  call void @llvm.lifetime.end.p0(i64 1, ptr nonnull %1) #12
  ret void
}